target datalayout = "e-m:e-p270:32:32-p271:32:32-p272:64:64-i64:64-i128:128-f80:128-n8:16:32:64-S128"
target triple = "x86_64-pc-linux-gnu"

%struct.pg_conn = type { ptr, ptr, ptr, ptr, ptr, ptr, ptr, ptr, ptr, ptr, ptr, ptr, ptr, ptr, ptr, ptr, ptr, ptr, ptr, ptr, ptr, ptr, ptr, ptr, ptr, ptr, ptr, ptr, ptr, ptr, ptr, ptr, ptr, ptr, ptr, ptr, ptr, ptr, ptr, ptr, ptr, ptr, ptr, i8, ptr, i32, %struct.PGNoticeHooks, ptr, i32, i32, i32, i32, i32, [6 x i8], i8, i8, i32, i8, i8, i32, i8, i32, ptr, ptr, i32, i32, ptr, ptr, ptr, ptr, ptr, i32, %struct.SockAddr, %struct.SockAddr, i32, i32, i8, i8, i8, i8, i8, i8, ptr, i8, i32, [1 x ptr], i8, i8, ptr, ptr, i32, i32, i32, i8, i8, i32, i32, ptr, i8, i64, ptr, i64, ptr, i32, i32, ptr, i32, i8, i32, i32, i32, i32, ptr, %struct.pg_prng_state, ptr, i32, i32, i32, i32, ptr, i32, i32, i32, i32, ptr, i32, ptr, i8, ptr, ptr, ptr, i32, i8, i8, i8, i8, i8, i8, i8, i8, %struct.PQExpBufferData, i32, %struct.PQExpBufferData }
%struct.PGNoticeHooks = type { ptr, ptr, ptr, ptr }
%struct.SockAddr = type { %struct.sockaddr_storage, i32 }
%struct.sockaddr_storage = type { i16, [118 x i8], i64 }
%struct.pg_prng_state = type { i64, i64 }
%struct.PQExpBufferData = type { ptr, i64, i64 }

@.str.56 = private unnamed_addr constant [50 x i8] c"libpq is incorrectly linked to backend functions\0A\00", align 1

; Function Attrs: nounwind uwtable
define i32 @pqConnectDBStart(ptr noundef %0) #0 {
  %2 = alloca i32, align 4
  %3 = alloca ptr, align 8
  store ptr %0, ptr %3, align 8
  %4 = load ptr, ptr %3, align 8
  %5 = icmp ne ptr %4, null
  br i1 %5, label %7, label %6

6:                                                ; preds = %1
  store i32 0, ptr %2, align 4
  br label %58

7:                                                ; preds = %1
  %8 = load ptr, ptr %3, align 8
  %9 = getelementptr inbounds nuw %struct.pg_conn, ptr %8, i32 0, i32 54
  %10 = load i8, ptr %9, align 2, !range !3, !noundef !4
  %11 = trunc i8 %10 to i1
  br i1 %11, label %13, label %12

12:                                               ; preds = %7
  br label %54

13:                                               ; preds = %7
  %14 = call zeroext i1 @pg_link_canary_is_frontend()
  br i1 %14, label %18, label %15

15:                                               ; preds = %13
  %16 = load ptr, ptr %3, align 8
  %17 = getelementptr inbounds nuw %struct.pg_conn, ptr %16, i32 0, i32 140
  call void @appendPQExpBufferStr(ptr noundef %17, ptr noundef @.str.56)
  br label %54

18:                                               ; preds = %13
  %19 = load ptr, ptr %3, align 8
  %20 = getelementptr inbounds nuw %struct.pg_conn, ptr %19, i32 0, i32 118
  store i32 0, ptr %20, align 4
  %21 = load ptr, ptr %3, align 8
  %22 = getelementptr inbounds nuw %struct.pg_conn, ptr %21, i32 0, i32 117
  store i32 0, ptr %22, align 8
  %23 = load ptr, ptr %3, align 8
  %24 = getelementptr inbounds nuw %struct.pg_conn, ptr %23, i32 0, i32 116
  store i32 0, ptr %24, align 4
  %25 = load ptr, ptr %3, align 8
  %26 = getelementptr inbounds nuw %struct.pg_conn, ptr %25, i32 0, i32 121
  store i32 0, ptr %26, align 4
  %27 = load ptr, ptr %3, align 8
  %28 = getelementptr inbounds nuw %struct.pg_conn, ptr %27, i32 0, i32 43
  %29 = load i8, ptr %28, align 8, !range !3, !noundef !4
  %30 = trunc i8 %29 to i1
  br i1 %30, label %38, label %31

31:                                               ; preds = %18
  %32 = load ptr, ptr %3, align 8
  %33 = getelementptr inbounds nuw %struct.pg_conn, ptr %32, i32 0, i32 65
  store i32 -1, ptr %33, align 4
  %34 = load ptr, ptr %3, align 8
  %35 = getelementptr inbounds nuw %struct.pg_conn, ptr %34, i32 0, i32 94
  store i8 1, ptr %35, align 1
  %36 = load ptr, ptr %3, align 8
  %37 = getelementptr inbounds nuw %struct.pg_conn, ptr %36, i32 0, i32 93
  store i8 0, ptr %37, align 4
  br label %38

38:                                               ; preds = %31, %18
  %39 = load ptr, ptr %3, align 8
  %40 = getelementptr inbounds nuw %struct.pg_conn, ptr %39, i32 0, i32 50
  store i32 8, ptr %40, align 8
  %41 = load ptr, ptr %3, align 8
  %42 = getelementptr inbounds nuw %struct.pg_conn, ptr %41, i32 0, i32 91
  %43 = load i32, ptr %42, align 4
  %44 = icmp eq i32 %43, 6
  br i1 %44, label %45, label %48

45:                                               ; preds = %38
  %46 = load ptr, ptr %3, align 8
  %47 = getelementptr inbounds nuw %struct.pg_conn, ptr %46, i32 0, i32 91
  store i32 5, ptr %47, align 4
  br label %48

48:                                               ; preds = %45, %38
  %49 = load ptr, ptr %3, align 8
  %50 = call i32 @PQconnectPoll(ptr noundef %49)
  %51 = icmp eq i32 %50, 2
  br i1 %51, label %52, label %53

52:                                               ; preds = %48
  store i32 1, ptr %2, align 4
  br label %58

53:                                               ; preds = %48
  br label %54

54:                                               ; preds = %53, %15, %12
  %55 = load ptr, ptr %3, align 8
  call void @pqDropConnection(ptr noundef %55, i1 noundef zeroext true)
  %56 = load ptr, ptr %3, align 8
  %57 = getelementptr inbounds nuw %struct.pg_conn, ptr %56, i32 0, i32 50
  store i32 1, ptr %57, align 8
  store i32 0, ptr %2, align 4
  br label %58

58:                                               ; preds = %54, %52, %6
  %59 = load i32, ptr %2, align 4
  ret i32 %59
}