; Function Attrs: nounwind uwtable
define range(i32 0, 2) i32 @pqConnectDBStart(ptr noundef %0) local_unnamed_addr #0 {
  %.not = icmp eq ptr %0, null
  br i1 %.not, label %33, label %2

2:                                                ; preds = %1
  %3 = getelementptr inbounds nuw i8, ptr %0, i64 434
  %4 = load i8, ptr %3, align 2, !range !13, !noundef !14
  %5 = trunc nuw i8 %4 to i1
  br i1 %5, label %6, label %31

6:                                                ; preds = %2
  %7 = tail call zeroext i1 @pg_link_canary_is_frontend() #25
  br i1 %7, label %10, label %8

8:                                                ; preds = %6
  %9 = getelementptr inbounds nuw i8, ptr %0, i64 1120
  tail call void @appendPQExpBufferStr(ptr noundef nonnull %9, ptr noundef nonnull @.str.56) #25
  br label %31

10:                                               ; preds = %6
  %11 = getelementptr inbounds nuw i8, ptr %0, i64 1020
  store i32 0, ptr %11, align 4
  %12 = getelementptr inbounds nuw i8, ptr %0, i64 1016
  store i32 0, ptr %12, align 8
  %13 = getelementptr inbounds nuw i8, ptr %0, i64 1012
  store i32 0, ptr %13, align 4
  %14 = getelementptr inbounds nuw i8, ptr %0, i64 1036
  store i32 0, ptr %14, align 4
  %15 = getelementptr inbounds nuw i8, ptr %0, i64 344
  %16 = load i8, ptr %15, align 8, !range !13, !noundef !14
  %17 = trunc nuw i8 %16 to i1
  br i1 %17, label %22, label %18

18:                                               ; preds = %10
  %19 = getelementptr inbounds nuw i8, ptr %0, i64 476
  store i32 -1, ptr %19, align 4
  %20 = getelementptr inbounds nuw i8, ptr %0, i64 877
  store i8 1, ptr %20, align 1
  %21 = getelementptr inbounds nuw i8, ptr %0, i64 876
  store i8 0, ptr %21, align 4
  br label %22

22:                                               ; preds = %18, %10
  %23 = getelementptr inbounds nuw i8, ptr %0, i64 416
  store i32 8, ptr %23, align 8
  %24 = getelementptr inbounds nuw i8, ptr %0, i64 868
  %25 = load i32, ptr %24, align 4
  %26 = icmp eq i32 %25, 6
  br i1 %26, label %27, label %28

27:                                               ; preds = %22
  store i32 5, ptr %24, align 4
  br label %28

28:                                               ; preds = %27, %22
  %29 = tail call i32 @PQconnectPoll(ptr noundef nonnull %0)
  %30 = icmp eq i32 %29, 2
  br i1 %30, label %33, label %31

31:                                               ; preds = %28, %2, %8
  tail call void @pqDropConnection(ptr noundef nonnull %0, i1 noundef zeroext true)
  %32 = getelementptr inbounds nuw i8, ptr %0, i64 416
  store i32 1, ptr %32, align 8
  br label %33

33:                                               ; preds = %28, %1, %31
  %.0 = phi i32 [ 0, %31 ], [ 0, %1 ], [ 1, %28 ]
  ret i32 %.0
}